target datalayout = "e-m:e-p270:32:32-p271:32:32-p272:64:64-i64:64-i128:128-f80:128-n8:16:32:64-S128"
target triple = "x86_64-unknown-linux-gnu"

%struct.NamedGPIOList = type { ptr, ptr, i32, i32, %struct.anon }
%struct.anon = type { ptr, ptr }
%struct.DeviceState = type { %struct.Object, ptr, ptr, i8, i8, i64, ptr, i32, i8, ptr, %struct.NamedGPIOListHead, %struct.NamedClockListHead, %struct.BusStateHead, i32, i32, i32, %struct.ResettableState, ptr, %struct.MemReentrancyGuard }
%struct.Object = type { ptr, ptr, ptr, i32, ptr }
%struct.NamedGPIOListHead = type { ptr }
%struct.NamedClockListHead = type { ptr }
%struct.BusStateHead = type { ptr }
%struct.ResettableState = type { i32, i8, i8 }
%struct.MemReentrancyGuard = type { i8 }

@.str.1 = private unnamed_addr constant [23 x i8] c"../qemu/hw/core/gpio.c\00", align 1
@.str.3 = private unnamed_addr constant [7 x i8] c"%s[%u]\00", align 1
@.str.4 = private unnamed_addr constant [32 x i8] c"gpio_list->num_in == 0 || !name\00", align 1
@__PRETTY_FUNCTION__.qdev_init_gpio_out_named = private unnamed_addr constant [76 x i8] c"void qdev_init_gpio_out_named(DeviceState *, qemu_irq *, const char *, int)\00", align 1
@.str.5 = private unnamed_addr constant [17 x i8] c"unnamed-gpio-out\00", align 1
@.str.6 = private unnamed_addr constant [4 x i8] c"irq\00", align 1

; Function Attrs: nounwind sspstrong uwtable
define internal ptr @qdev_get_named_gpio_list(ptr noundef %dev, ptr noundef %name) #0 {
entry:
  %retval = alloca ptr, align 8
  %dev.addr = alloca ptr, align 8
  %name.addr = alloca ptr, align 8
  %ngl = alloca ptr, align 8
  store ptr %dev, ptr %dev.addr, align 8
  store ptr %name, ptr %name.addr, align 8
  %0 = load ptr, ptr %dev.addr, align 8
  %gpios = getelementptr inbounds %struct.DeviceState, ptr %0, i32 0, i32 10
  %lh_first = getelementptr inbounds %struct.NamedGPIOListHead, ptr %gpios, i32 0, i32 0
  %1 = load ptr, ptr %lh_first, align 8
  store ptr %1, ptr %ngl, align 8
  br label %for.cond

for.cond:                                         ; preds = %for.inc, %entry
  %2 = load ptr, ptr %ngl, align 8
  %tobool = icmp ne ptr %2, null
  br i1 %tobool, label %for.body, label %for.end

for.body:                                         ; preds = %for.cond
  %3 = load ptr, ptr %name.addr, align 8
  %4 = load ptr, ptr %ngl, align 8
  %name1 = getelementptr inbounds %struct.NamedGPIOList, ptr %4, i32 0, i32 0
  %5 = load ptr, ptr %name1, align 8
  %call = call i32 @g_strcmp0(ptr noundef %3, ptr noundef %5)
  %cmp = icmp eq i32 %call, 0
  br i1 %cmp, label %if.then, label %if.end

if.then:                                          ; preds = %for.body
  %6 = load ptr, ptr %ngl, align 8
  store ptr %6, ptr %retval, align 8
  br label %return

if.end:                                           ; preds = %for.body
  br label %for.inc

for.inc:                                          ; preds = %if.end
  %7 = load ptr, ptr %ngl, align 8
  %node = getelementptr inbounds %struct.NamedGPIOList, ptr %7, i32 0, i32 4
  %le_next = getelementptr inbounds %struct.anon, ptr %node, i32 0, i32 0
  %8 = load ptr, ptr %le_next, align 8
  store ptr %8, ptr %ngl, align 8
  br label %for.cond, !llvm.loop !7

for.end:                                          ; preds = %for.cond
  %call2 = call noalias ptr @g_malloc0(i64 noundef 40) #6
  store ptr %call2, ptr %ngl, align 8
  %9 = load ptr, ptr %name.addr, align 8
  %call3 = call noalias ptr @g_strdup(ptr noundef %9)
  %10 = load ptr, ptr %ngl, align 8
  %name4 = getelementptr inbounds %struct.NamedGPIOList, ptr %10, i32 0, i32 0
  store ptr %call3, ptr %name4, align 8
  br label %do.body

do.body:                                          ; preds = %for.end
  %11 = load ptr, ptr %dev.addr, align 8
  %gpios5 = getelementptr inbounds %struct.DeviceState, ptr %11, i32 0, i32 10
  %lh_first6 = getelementptr inbounds %struct.NamedGPIOListHead, ptr %gpios5, i32 0, i32 0
  %12 = load ptr, ptr %lh_first6, align 8
  %13 = load ptr, ptr %ngl, align 8
  %node7 = getelementptr inbounds %struct.NamedGPIOList, ptr %13, i32 0, i32 4
  %le_next8 = getelementptr inbounds %struct.anon, ptr %node7, i32 0, i32 0
  store ptr %12, ptr %le_next8, align 8
  %cmp9 = icmp ne ptr %12, null
  br i1 %cmp9, label %if.then10, label %if.end16

if.then10:                                        ; preds = %do.body
  %14 = load ptr, ptr %ngl, align 8
  %node11 = getelementptr inbounds %struct.NamedGPIOList, ptr %14, i32 0, i32 4
  %le_next12 = getelementptr inbounds %struct.anon, ptr %node11, i32 0, i32 0
  %15 = load ptr, ptr %dev.addr, align 8
  %gpios13 = getelementptr inbounds %struct.DeviceState, ptr %15, i32 0, i32 10
  %lh_first14 = getelementptr inbounds %struct.NamedGPIOListHead, ptr %gpios13, i32 0, i32 0
  %16 = load ptr, ptr %lh_first14, align 8
  %node15 = getelementptr inbounds %struct.NamedGPIOList, ptr %16, i32 0, i32 4
  %le_prev = getelementptr inbounds %struct.anon, ptr %node15, i32 0, i32 1
  store ptr %le_next12, ptr %le_prev, align 8
  br label %if.end16

if.end16:                                         ; preds = %if.then10, %do.body
  %17 = load ptr, ptr %ngl, align 8
  %18 = load ptr, ptr %dev.addr, align 8
  %gpios17 = getelementptr inbounds %struct.DeviceState, ptr %18, i32 0, i32 10
  %lh_first18 = getelementptr inbounds %struct.NamedGPIOListHead, ptr %gpios17, i32 0, i32 0
  store ptr %17, ptr %lh_first18, align 8
  %19 = load ptr, ptr %dev.addr, align 8
  %gpios19 = getelementptr inbounds %struct.DeviceState, ptr %19, i32 0, i32 10
  %lh_first20 = getelementptr inbounds %struct.NamedGPIOListHead, ptr %gpios19, i32 0, i32 0
  %20 = load ptr, ptr %ngl, align 8
  %node21 = getelementptr inbounds %struct.NamedGPIOList, ptr %20, i32 0, i32 4
  %le_prev22 = getelementptr inbounds %struct.anon, ptr %node21, i32 0, i32 1
  store ptr %lh_first20, ptr %le_prev22, align 8
  br label %do.end

do.end:                                           ; preds = %if.end16
  %21 = load ptr, ptr %ngl, align 8
  store ptr %21, ptr %retval, align 8
  br label %return

return:                                           ; preds = %do.end, %if.then
  %22 = load ptr, ptr %retval, align 8
  ret ptr %22
}

; Function Attrs: nounwind sspstrong uwtable
define dso_local void @qdev_init_gpio_out_named(ptr noundef %dev, ptr noundef %pins, ptr noundef %name, i32 noundef %n) #0 {
entry:
  %dev.addr = alloca ptr, align 8
  %pins.addr = alloca ptr, align 8
  %name.addr = alloca ptr, align 8
  %n.addr = alloca i32, align 4
  %i = alloca i32, align 4
  %gpio_list = alloca ptr, align 8
  %propname = alloca ptr, align 8
  store ptr %dev, ptr %dev.addr, align 8
  store ptr %pins, ptr %pins.addr, align 8
  store ptr %name, ptr %name.addr, align 8
  store i32 %n, ptr %n.addr, align 4
  %0 = load ptr, ptr %dev.addr, align 8
  %1 = load ptr, ptr %name.addr, align 8
  %call = call ptr @qdev_get_named_gpio_list(ptr noundef %0, ptr noundef %1)
  store ptr %call, ptr %gpio_list, align 8
  %2 = load ptr, ptr %gpio_list, align 8
  %num_in = getelementptr inbounds %struct.NamedGPIOList, ptr %2, i32 0, i32 2
  %3 = load i32, ptr %num_in, align 8
  %cmp = icmp eq i32 %3, 0
  br i1 %cmp, label %if.then, label %lor.lhs.false

lor.lhs.false:                                    ; preds = %entry
  %4 = load ptr, ptr %name.addr, align 8
  %tobool = icmp ne ptr %4, null
  br i1 %tobool, label %if.else, label %if.then

if.then:                                          ; preds = %lor.lhs.false, %entry
  br label %if.end

if.else:                                          ; preds = %lor.lhs.false
  call void @__assert_fail(ptr noundef @.str.4, ptr noundef @.str.1, i32 noundef 80, ptr noundef @__PRETTY_FUNCTION__.qdev_init_gpio_out_named) #5
  unreachable

if.end:                                           ; preds = %if.then
  %5 = load ptr, ptr %name.addr, align 8
  %tobool1 = icmp ne ptr %5, null
  br i1 %tobool1, label %if.end3, label %if.then2

if.then2:                                         ; preds = %if.end
  store ptr @.str.5, ptr %name.addr, align 8
  br label %if.end3

if.end3:                                          ; preds = %if.then2, %if.end
  %6 = load ptr, ptr %pins.addr, align 8
  %7 = load i32, ptr %n.addr, align 4
  %conv = sext i32 %7 to i64
  %mul = mul i64 8, %conv
  call void @llvm.memset.p0.i64(ptr align 8 %6, i8 0, i64 %mul, i1 false)
  store i32 0, ptr %i, align 4
  br label %for.cond

for.cond:                                         ; preds = %for.inc, %if.end3
  %8 = load i32, ptr %i, align 4
  %9 = load i32, ptr %n.addr, align 4
  %cmp4 = icmp slt i32 %8, %9
  br i1 %cmp4, label %for.body, label %for.end

for.body:                                         ; preds = %for.cond
  %10 = load ptr, ptr %name.addr, align 8
  %11 = load ptr, ptr %gpio_list, align 8
  %num_out = getelementptr inbounds %struct.NamedGPIOList, ptr %11, i32 0, i32 3
  %12 = load i32, ptr %num_out, align 4
  %13 = load i32, ptr %i, align 4
  %add = add i32 %12, %13
  %call6 = call noalias ptr (ptr, ...) @g_strdup_printf(ptr noundef @.str.3, ptr noundef %10, i32 noundef %add)
  store ptr %call6, ptr %propname, align 8
  %14 = load ptr, ptr %dev.addr, align 8
  %15 = load ptr, ptr %propname, align 8
  %16 = load ptr, ptr %pins.addr, align 8
  %17 = load i32, ptr %i, align 4
  %idxprom = sext i32 %17 to i64
  %arrayidx = getelementptr ptr, ptr %16, i64 %idxprom
  %call7 = call ptr @object_property_add_link(ptr noundef %14, ptr noundef %15, ptr noundef @.str.6, ptr noundef %arrayidx, ptr noundef @object_property_allow_set_link, i32 noundef 1)
  %18 = load ptr, ptr %propname, align 8
  call void @g_free(ptr noundef %18)
  br label %for.inc

for.inc:                                          ; preds = %for.body
  %19 = load i32, ptr %i, align 4
  %inc = add i32 %19, 1
  store i32 %inc, ptr %i, align 4
  br label %for.cond, !llvm.loop !8

for.end:                                          ; preds = %for.cond
  %20 = load i32, ptr %n.addr, align 4
  %21 = load ptr, ptr %gpio_list, align 8
  %num_out8 = getelementptr inbounds %struct.NamedGPIOList, ptr %21, i32 0, i32 3
  %22 = load i32, ptr %num_out8, align 4
  %add9 = add i32 %22, %20
  store i32 %add9, ptr %num_out8, align 4
  ret void
}