; Function Attrs: nounwind sspstrong uwtable
define dso_local void @qdev_init_gpio_out_named(ptr noundef %dev, ptr noundef %pins, ptr noundef %name, i32 noundef %n) local_unnamed_addr #0 {
entry:
  %gpios.i = getelementptr inbounds nuw i8, ptr %dev, i64 96
  %ngl.016.i = load ptr, ptr %gpios.i, align 8
  %tobool.not17.i = icmp eq ptr %ngl.016.i, null
  br i1 %tobool.not17.i, label %for.end.i, label %for.body.i

for.body.i:                                       ; preds = %entry, %for.inc.i
  %ngl.018.i = phi ptr [ %ngl.0.i, %for.inc.i ], [ %ngl.016.i, %entry ]
  %0 = load ptr, ptr %ngl.018.i, align 8
  %call.i = tail call i32 @g_strcmp0(ptr noundef %name, ptr noundef %0) #5
  %cmp.i = icmp eq i32 %call.i, 0
  br i1 %cmp.i, label %qdev_get_named_gpio_list.exit, label %for.inc.i

for.inc.i:                                        ; preds = %for.body.i
  %node.i = getelementptr inbounds nuw i8, ptr %ngl.018.i, i64 24
  %ngl.0.i = load ptr, ptr %node.i, align 8
  %tobool.not.i = icmp eq ptr %ngl.0.i, null
  br i1 %tobool.not.i, label %for.end.i, label %for.body.i, !llvm.loop !5

for.end.i:                                        ; preds = %for.inc.i, %entry
  %call2.i = tail call noalias dereferenceable_or_null(40) ptr @g_malloc0(i64 noundef 40) #6
  %call3.i = tail call noalias ptr @g_strdup(ptr noundef %name) #5
  store ptr %call3.i, ptr %call2.i, align 8
  %1 = load ptr, ptr %gpios.i, align 8
  %node7.i = getelementptr inbounds nuw i8, ptr %call2.i, i64 24
  store ptr %1, ptr %node7.i, align 8
  %cmp9.not.i = icmp eq ptr %1, null
  br i1 %cmp9.not.i, label %if.end16.i, label %if.then10.i

if.then10.i:                                      ; preds = %for.end.i
  %le_prev.i = getelementptr inbounds nuw i8, ptr %1, i64 32
  store ptr %node7.i, ptr %le_prev.i, align 8
  br label %if.end16.i

if.end16.i:                                       ; preds = %if.then10.i, %for.end.i
  store ptr %call2.i, ptr %gpios.i, align 8
  %le_prev22.i = getelementptr inbounds nuw i8, ptr %call2.i, i64 32
  store ptr %gpios.i, ptr %le_prev22.i, align 8
  br label %qdev_get_named_gpio_list.exit

qdev_get_named_gpio_list.exit:                    ; preds = %for.body.i, %if.end16.i
  %retval.0.i = phi ptr [ %call2.i, %if.end16.i ], [ %ngl.018.i, %for.body.i ]
  %num_in = getelementptr inbounds nuw i8, ptr %retval.0.i, i64 16
  %2 = load i32, ptr %num_in, align 8
  %cmp = icmp ne i32 %2, 0
  %tobool = icmp ne ptr %name, null
  %or.cond = and i1 %tobool, %cmp
  br i1 %or.cond, label %if.else, label %if.end

if.else:                                          ; preds = %qdev_get_named_gpio_list.exit
  tail call void @__assert_fail(ptr noundef nonnull @.str.4, ptr noundef nonnull @.str.1, i32 noundef 80, ptr noundef nonnull @__PRETTY_FUNCTION__.qdev_init_gpio_out_named) #7
  unreachable

if.end:                                           ; preds = %qdev_get_named_gpio_list.exit
  %spec.store.select = select i1 %tobool, ptr %name, ptr @.str.5
  %conv = sext i32 %n to i64
  %mul = shl nsw i64 %conv, 3
  tail call void @llvm.memset.p0.i64(ptr align 8 %pins, i8 0, i64 %mul, i1 false)
  %cmp415 = icmp sgt i32 %n, 0
  br i1 %cmp415, label %for.body.lr.ph, label %for.end

for.body.lr.ph:                                   ; preds = %if.end
  %num_out = getelementptr inbounds nuw i8, ptr %retval.0.i, i64 20
  %wide.trip.count = zext nneg i32 %n to i64
  br label %for.body

for.body:                                         ; preds = %for.body.lr.ph, %for.body
  %indvars.iv = phi i64 [ 0, %for.body.lr.ph ], [ %indvars.iv.next, %for.body ]
  %3 = load i32, ptr %num_out, align 4
  %4 = trunc nuw nsw i64 %indvars.iv to i32
  %add = add i32 %3, %4
  %call6 = tail call noalias ptr (ptr, ...) @g_strdup_printf(ptr noundef nonnull @.str.3, ptr noundef nonnull %spec.store.select, i32 noundef %add) #5
  %arrayidx = getelementptr ptr, ptr %pins, i64 %indvars.iv
  %call7 = tail call ptr @object_property_add_link(ptr noundef %dev, ptr noundef %call6, ptr noundef nonnull @.str.6, ptr noundef %arrayidx, ptr noundef nonnull @object_property_allow_set_link, i32 noundef 1) #5
  tail call void @g_free(ptr noundef %call6) #5
  %indvars.iv.next = add nuw nsw i64 %indvars.iv, 1
  %exitcond.not = icmp eq i64 %indvars.iv.next, %wide.trip.count
  br i1 %exitcond.not, label %for.end, label %for.body, !llvm.loop !8

for.end:                                          ; preds = %for.body, %if.end
  %num_out8 = getelementptr inbounds nuw i8, ptr %retval.0.i, i64 20
  %5 = load i32, ptr %num_out8, align 4
  %add9 = add i32 %5, %n
  store i32 %add9, ptr %num_out8, align 4
  ret void
}